Certificate:
    Data:
        Version: 3 (0x2)
        Serial Number:
            14:b8:35:fe:79:4e:21:5a:18:b6:20:ef:80:c3:6c:3b
        Signature Algorithm: sha384WithRSAEncryption
        Issuer: C = AT, O = ZeroSSL, CN = ZeroSSL RSA Domain Secure Site CA
        Validity
            Not Before: Jun 28 00:00:00 2023 GMT
            Not After : Sep 26 23:59:59 2023 GMT
        Subject: CN = pi.imdhson.com
        Subject Public Key Info:
            Public Key Algorithm: rsaEncryption
                RSA Public-Key: (2048 bit)
                Modulus:
                    00:81:a3:94:5e:8e:8c:34:c6:91:b5:31:e9:46:34:
                    5e:b5:49:44:96:54:41:48:34:ca:89:ab:6d:5a:b5:
                    2d:61:dc:05:92:70:6e:58:46:da:b0:51:54:4b:49:
                    c1:25:fd:15:4e:41:cb:27:9f:1c:d9:4d:9f:45:1f:
                    ca:77:f0:04:cc:ba:be:52:90:0b:06:76:c7:f7:99:
                    5c:ed:ad:b6:4f:73:13:a1:e7:f0:8c:2d:d1:66:e8:
                    f5:d1:68:0d:37:31:21:b4:63:34:68:84:eb:03:da:
                    07:7c:c6:3d:19:0e:09:2f:7c:74:c0:d8:02:18:1e:
                    d7:6c:12:29:ba:1d:53:46:c9:65:6d:cb:92:a1:00:
                    66:c7:09:83:bf:59:d4:3e:3d:64:86:5b:bd:23:77:
                    83:84:b4:f1:ae:e9:fd:8a:b7:dd:d4:da:e4:0b:16:
                    d6:78:d9:d3:ed:e5:00:11:f3:7a:4e:f6:39:88:ff:
                    3a:97:c1:f0:67:c6:d0:2e:11:4f:cc:85:ff:85:97:
                    11:e3:d6:ea:85:50:09:14:e2:0b:f9:39:ef:69:7d:
                    5a:4c:90:a1:ea:c6:29:ff:e4:62:76:6c:ed:4a:8e:
                    84:46:4c:63:40:e7:b0:46:5e:db:c9:cf:2e:f2:a6:
                    e6:7c:51:49:03:97:16:8c:c9:32:8a:b9:c6:88:17:
                    88:5f
                Exponent: 65537 (0x10001)
        X509v3 extensions:
            X509v3 Authority Key Identifier: 
                keyid:C8:D9:78:68:A2:D9:19:68:D5:3D:72:DE:5F:0A:3E:DC:B5:86:86:A6

            X509v3 Subject Key Identifier: 
                A0:EB:3B:0E:9D:1D:78:88:25:B3:6F:A5:10:DC:66:9E:E0:2E:1A:A8
            X509v3 Key Usage: critical
                Digital Signature, Key Encipherment
            X509v3 Basic Constraints: critical
                CA:FALSE
            X509v3 Extended Key Usage: 
                TLS Web Server Authentication, TLS Web Client Authentication
            X509v3 Certificate Policies: 
                Policy: 1.3.6.1.4.1.6449.1.2.2.78
                  CPS: https://sectigo.com/CPS
                Policy: 2.23.140.1.2.1

            Authority Information Access: 
                CA Issuers - URI:http://zerossl.crt.sectigo.com/ZeroSSLRSADomainSecureSiteCA.crt
                OCSP - URI:http://zerossl.ocsp.sectigo.com

            CT Precertificate SCTs: 
                Signed Certificate Timestamp:
                    Version   : v1 (0x0)
                    Log ID    : AD:F7:BE:FA:7C:FF:10:C8:8B:9D:3D:9C:1E:3E:18:6A:
                                B4:67:29:5D:CF:B1:0C:24:CA:85:86:34:EB:DC:82:8A
                    Timestamp : Jun 28 08:38:55.677 2023 GMT
                    Extensions: none
                    Signature : ecdsa-with-SHA256
                                30:45:02:21:00:84:0E:90:E4:94:6A:72:A8:B9:CF:7C:
                                10:73:20:F4:BE:04:81:85:AA:3A:34:76:D3:33:89:B2:
                                1B:5F:69:2C:12:02:20:58:B9:70:17:02:FB:A8:81:8F:
                                86:81:3F:9B:13:41:D1:6A:E9:2B:98:E1:1D:5E:5C:D8:
                                93:F6:D8:60:EB:13:F0
                Signed Certificate Timestamp:
                    Version   : v1 (0x0)
                    Log ID    : 7A:32:8C:54:D8:B7:2D:B6:20:EA:38:E0:52:1E:E9:84:
                                16:70:32:13:85:4D:3B:D2:2B:C1:3A:57:A3:52:EB:52
                    Timestamp : Jun 28 08:38:55.765 2023 GMT
                    Extensions: none
                    Signature : ecdsa-with-SHA256
                                30:46:02:21:00:E0:E5:DE:83:77:BA:E8:9F:AA:C3:1D:
                                B3:47:66:6B:66:6A:2A:EA:FD:B0:A9:AE:1A:FD:B9:5B:
                                1F:40:CB:0D:B8:02:21:00:EE:44:35:1B:65:7D:BD:A8:
                                FA:0A:09:3C:BE:0A:98:35:FD:57:BD:83:8E:B4:8C:CD:
                                97:BE:E0:8B:06:8A:7F:7D
            X509v3 Subject Alternative Name: 
                DNS:pi.imdhson.com
    Signature Algorithm: sha384WithRSAEncryption
         08:8b:c9:18:ce:d2:57:72:4a:ca:08:ff:4e:c2:a2:ce:b6:84:
         18:7d:8a:c3:9b:83:14:44:8f:b1:80:e0:bb:59:1f:a7:96:e1:
         5c:9f:bf:ec:00:a3:04:21:6d:8f:60:0e:70:57:c3:25:44:0e:
         37:01:ac:14:68:e2:c6:0b:e1:21:f2:41:47:57:f1:8d:73:8f:
         60:1f:8f:bd:4e:65:10:47:84:e3:df:82:67:53:63:24:3e:e0:
         e0:44:4c:0f:82:45:a4:0a:19:74:d4:ba:21:97:d0:ef:02:51:
         61:21:14:11:75:dd:fe:05:17:9f:de:7a:9d:43:f7:2c:15:a4:
         06:b4:6f:44:82:80:11:6f:0d:b7:84:d5:0b:d5:aa:8f:ee:c4:
         b1:7d:06:5e:a8:93:82:ef:88:64:50:0f:9a:55:41:9b:3f:00:
         75:d7:ef:95:70:6d:ef:3f:c9:d3:4d:68:05:2d:19:c7:93:ea:
         5a:10:1c:6b:0e:c7:ed:67:d9:f0:81:c9:a3:f4:24:bf:af:59:
         be:63:3b:1c:15:43:f5:ce:41:41:9e:71:cb:be:a3:01:83:61:
         6b:82:cf:9d:d7:2d:a9:71:a2:f0:5a:c5:16:85:7f:39:b5:25:
         45:cd:17:95:42:a3:30:22:85:7a:55:e4:8e:42:83:d1:0f:48:
         96:91:07:78:5e:95:ba:00:c4:66:a1:bd:9e:92:b4:76:fb:c2:
         3b:b1:12:4a:62:33:06:9c:53:90:c3:da:ab:cb:2e:00:87:57:
         2b:6a:22:db:dd:d1:ac:4f:f7:bb:b2:ee:18:4b:68:b2:a0:dc:
         07:22:3a:a8:18:39:3c:fe:d4:d4:7b:a2:67:12:96:dc:a8:84:
         ea:c0:ef:79:a4:1e:9a:f4:4e:5f:82:d5:72:f7:7e:56:73:d7:
         26:75:b9:8c:ca:2a:e0:9e:19:5b:e9:26:fd:00:52:1e:00:12:
         9f:00:38:7d:60:c6:43:10:80:9d:f1:ce:ea:71:8d:71:2d:68:
         1a:26:53:ee:c5:d7:84:e2:9f:d3:c8:a3:d8:0d:06:f9:5e:72:
         e6:b1:03:37:2a:f7:d7:aa:9a:48:6e:21:2d:33:28:d0:0a:2c:
         25:8a:48:30:b0:fe:21:e0:26:66:0a:06:b8:be:26:fd:87:ae:
         68:b6:dd:ae:2e:0e:79:65:30:e7:4e:e9:32:99:0d:11:72:be:
         49:c8:a6:ef:f7:5c:d8:09:00:69:48:c8:ea:eb:e3:19:dd:5e:
         2c:95:80:b4:63:28:39:36:36:4b:94:ad:54:01:92:26:6e:c9:
         90:90:dd:fb:08:a3:4a:d4:ad:f6:20:7b:5b:20:f3:16:4b:5b:
         a6:ed:96:61:ea:9b:f3:0e
-----BEGIN CERTIFICATE-----
MIIGazCCBFOgAwIBAgIQFLg1/nlOIVoYtiDvgMNsOzANBgkqhkiG9w0BAQwFADBL
MQswCQYDVQQGEwJBVDEQMA4GA1UEChMHWmVyb1NTTDEqMCgGA1UEAxMhWmVyb1NT
TCBSU0EgRG9tYWluIFNlY3VyZSBTaXRlIENBMB4XDTIzMDYyODAwMDAwMFoXDTIz
MDkyNjIzNTk1OVowGTEXMBUGA1UEAxMOcGkuaW1kaHNvbi5jb20wggEiMA0GCSqG
SIb3DQEBAQUAA4IBDwAwggEKAoIBAQCBo5Rejow0xpG1MelGNF61SUSWVEFINMqJ
q21atS1h3AWScG5YRtqwUVRLScEl/RVOQcsnnxzZTZ9FH8p38ATMur5SkAsGdsf3
mVztrbZPcxOh5/CMLdFm6PXRaA03MSG0YzRohOsD2gd8xj0ZDgkvfHTA2AIYHtds
Eim6HVNGyWVty5KhAGbHCYO/WdQ+PWSGW70jd4OEtPGu6f2Kt93U2uQLFtZ42dPt
5QAR83pO9jmI/zqXwfBnxtAuEU/Mhf+FlxHj1uqFUAkU4gv5Oe9pfVpMkKHqxin/
5GJ2bO1KjoRGTGNA57BGXtvJzy7ypuZ8UUkDlxaMyTKKucaIF4hfAgMBAAGjggJ7
MIICdzAfBgNVHSMEGDAWgBTI2XhootkZaNU9ct5fCj7ctYaGpjAdBgNVHQ4EFgQU
oOs7Dp0deIgls2+lENxmnuAuGqgwDgYDVR0PAQH/BAQDAgWgMAwGA1UdEwEB/wQC
MAAwHQYDVR0lBBYwFAYIKwYBBQUHAwEGCCsGAQUFBwMCMEkGA1UdIARCMEAwNAYL
KwYBBAGyMQECAk4wJTAjBggrBgEFBQcCARYXaHR0cHM6Ly9zZWN0aWdvLmNvbS9D
UFMwCAYGZ4EMAQIBMIGIBggrBgEFBQcBAQR8MHowSwYIKwYBBQUHMAKGP2h0dHA6
Ly96ZXJvc3NsLmNydC5zZWN0aWdvLmNvbS9aZXJvU1NMUlNBRG9tYWluU2VjdXJl
U2l0ZUNBLmNydDArBggrBgEFBQcwAYYfaHR0cDovL3plcm9zc2wub2NzcC5zZWN0
aWdvLmNvbTCCAQUGCisGAQQB1nkCBAIEgfYEgfMA8QB2AK33vvp8/xDIi509nB4+
GGq0Zyldz7EMJMqFhjTr3IKKAAABiQEn170AAAQDAEcwRQIhAIQOkOSUanKouc98
EHMg9L4EgYWqOjR20zOJshtfaSwSAiBYuXAXAvuogY+GgT+bE0HRaukrmOEdXlzY
k/bYYOsT8AB3AHoyjFTYty22IOo44FIe6YQWcDIThU070ivBOlejUutSAAABiQEn
2BUAAAQDAEgwRgIhAODl3oN3uuifqsMds0dma2ZqKur9sKmuGv25Wx9Ayw24AiEA
7kQ1G2V9vaj6Cgk8vgqYNf1XvYOOtIzNl77giwaKf30wGQYDVR0RBBIwEIIOcGku
aW1kaHNvbi5jb20wDQYJKoZIhvcNAQEMBQADggIBAAiLyRjO0ldySsoI/07Cos62
hBh9isObgxREj7GA4LtZH6eW4Vyfv+wAowQhbY9gDnBXwyVEDjcBrBRo4sYL4SHy
QUdX8Y1zj2Afj71OZRBHhOPfgmdTYyQ+4OBETA+CRaQKGXTUuiGX0O8CUWEhFBF1
3f4FF5/eep1D9ywVpAa0b0SCgBFvDbeE1QvVqo/uxLF9Bl6ok4LviGRQD5pVQZs/
AHXX75Vwbe8/ydNNaAUtGceT6loQHGsOx+1n2fCByaP0JL+vWb5jOxwVQ/XOQUGe
ccu+owGDYWuCz53XLalxovBaxRaFfzm1JUXNF5VCozAihXpV5I5Cg9EPSJaRB3he
lboAxGahvZ6StHb7wjuxEkpiMwacU5DD2qvLLgCHVytqItvd0axP97uy7hhLaLKg
3AciOqgYOTz+1NR7omcSltyohOrA73mkHpr0Tl+C1XL3flZz1yZ1uYzKKuCeGVvp
Jv0AUh4AEp8AOH1gxkMQgJ3xzupxjXEtaBomU+7F14Tin9PIo9gNBvlecuaxAzcq
99eqmkhuIS0zKNAKLCWKSDCw/iHgJmYKBri+Jv2Hrmi23a4uDnllMOdO6TKZDRFy
vknIpu/3XNgJAGlIyOrr4xndXiyVgLRjKDk2NkuUrVQBkiZuyZCQ3fsIo0rUrfYg
e1sg8xZLW6btlmHqm/MO
-----END CERTIFICATE-----
